; Function Attrs: mustprogress nounwind uwtable
define hidden noundef ptr @_ZN15VectorUnboxNode8IdentityEP8PhaseGVN(ptr noundef nonnull align 8 dereferenceable(65) %0, ptr nocapture noundef readnone %1) unnamed_addr #1 align 2 {
  %3 = getelementptr inbounds i8, ptr %0, i64 8
  %4 = load ptr, ptr %3, align 8
  %5 = getelementptr inbounds i8, ptr %4, i64 16
  %6 = load ptr, ptr %5, align 8
  %7 = tail call noundef ptr @_ZNK4Node6uncastEb(ptr noundef nonnull align 8 dereferenceable(52) %6, i1 noundef zeroext false) #8
  %8 = load i8, ptr @EnableVectorReboxing, align 1
  %9 = trunc i8 %8 to i1
  br i1 %9, label %10, label %33

10:                                               ; preds = %2
  %11 = load ptr, ptr %7, align 8
  %12 = load ptr, ptr %11, align 8
  %13 = tail call noundef i32 %12(ptr noundef nonnull align 8 dereferenceable(52) %7) #8
  %14 = icmp eq i32 %13, 468
  br i1 %14, label %15, label %33

15:                                               ; preds = %10
  %16 = load ptr, ptr %0, align 8
  %17 = getelementptr inbounds i8, ptr %16, i64 40
  %18 = load ptr, ptr %17, align 8
  %19 = tail call noundef ptr %18(ptr noundef nonnull align 8 dereferenceable(64) %0) #8
  %20 = getelementptr inbounds i8, ptr %7, i64 8
  %21 = load ptr, ptr %20, align 8
  %22 = getelementptr inbounds i8, ptr %21, i64 16
  %23 = load ptr, ptr %22, align 8
  %24 = load ptr, ptr %23, align 8
  %25 = getelementptr inbounds i8, ptr %24, i64 40
  %26 = load ptr, ptr %25, align 8
  %27 = tail call noundef ptr %26(ptr noundef nonnull align 8 dereferenceable(52) %23) #8
  %28 = tail call noundef zeroext i1 @_ZN4Type6equalsEPKS_S1_(ptr noundef %19, ptr noundef %27) #8
  br i1 %28, label %29, label %33

29:                                               ; preds = %15
  %30 = load ptr, ptr %20, align 8
  %31 = getelementptr inbounds i8, ptr %30, i64 16
  %32 = load ptr, ptr %31, align 8
  br label %33

33:                                               ; preds = %2, %10, %15, %29
  %.0 = phi ptr [ %32, %29 ], [ %0, %15 ], [ %0, %10 ], [ %0, %2 ]
  ret ptr %.0
}